target datalayout = "e-m:e-p270:32:32-p271:32:32-p272:64:64-i64:64-i128:128-f80:128-n8:16:32:64-S128"
target triple = "x86_64-pc-linux-gnu"

%"struct.icu_77::FormattedStringBuilder::Field" = type { i8 }
%"class.icu_77::FormattedStringBuilder" = type { i8, %"union.icu_77::FormattedStringBuilder::ValueOrHeapArray", %"union.icu_77::FormattedStringBuilder::ValueOrHeapArray.0", i32, i32 }
%"union.icu_77::FormattedStringBuilder::ValueOrHeapArray" = type { %struct.anon, [64 x i8] }
%struct.anon = type { ptr, i32 }
%"union.icu_77::FormattedStringBuilder::ValueOrHeapArray.0" = type { %struct.anon.1, [24 x i8] }
%struct.anon.1 = type { ptr, i32 }

@_ZN6icu_77L15kUndefinedFieldE = internal constant %"struct.icu_77::FormattedStringBuilder::Field" zeroinitializer, align 1

; Function Attrs: inlinehint mustprogress nounwind uwtable
define linkonce_odr noundef i32 @_ZNK6icu_7722FormattedStringBuilder11getCapacityEv(ptr noundef nonnull align 8 dereferenceable(136) %0) #5 comdat align 2 {
  %2 = alloca ptr, align 8
  store ptr %0, ptr %2, align 8, !tbaa !3
  %3 = load ptr, ptr %2, align 8
  %4 = getelementptr inbounds nuw %"class.icu_77::FormattedStringBuilder", ptr %3, i32 0, i32 0
  %5 = load i8, ptr %4, align 8, !tbaa !8, !range !14, !noundef !15
  %6 = trunc i8 %5 to i1
  br i1 %6, label %7, label %11

7:                                                ; preds = %1
  %8 = getelementptr inbounds nuw %"class.icu_77::FormattedStringBuilder", ptr %3, i32 0, i32 1
  %9 = getelementptr inbounds nuw %struct.anon, ptr %8, i32 0, i32 1
  %10 = load i32, ptr %9, align 8, !tbaa !16
  br label %12

11:                                               ; preds = %1
  br label %12

12:                                               ; preds = %11, %7
  %13 = phi i32 [ %10, %7 ], [ 40, %11 ]
  ret i32 %13
}

; Function Attrs: inlinehint mustprogress nounwind uwtable
define linkonce_odr noundef ptr @_ZN6icu_7722FormattedStringBuilder11getFieldPtrEv(ptr noundef nonnull align 8 dereferenceable(136) %0) #5 comdat align 2 {
  %2 = alloca ptr, align 8
  store ptr %0, ptr %2, align 8, !tbaa !3
  %3 = load ptr, ptr %2, align 8
  %4 = getelementptr inbounds nuw %"class.icu_77::FormattedStringBuilder", ptr %3, i32 0, i32 0
  %5 = load i8, ptr %4, align 8, !tbaa !8, !range !14, !noundef !15
  %6 = trunc i8 %5 to i1
  br i1 %6, label %7, label %11

7:                                                ; preds = %1
  %8 = getelementptr inbounds nuw %"class.icu_77::FormattedStringBuilder", ptr %3, i32 0, i32 2
  %9 = getelementptr inbounds nuw %struct.anon.1, ptr %8, i32 0, i32 0
  %10 = load ptr, ptr %9, align 8, !tbaa !16
  br label %14

11:                                               ; preds = %1
  %12 = getelementptr inbounds nuw %"class.icu_77::FormattedStringBuilder", ptr %3, i32 0, i32 2
  %13 = getelementptr inbounds [40 x %"struct.icu_77::FormattedStringBuilder::Field"], ptr %12, i64 0, i64 0
  br label %14

14:                                               ; preds = %11, %7
  %15 = phi ptr [ %10, %7 ], [ %13, %11 ]
  ret ptr %15
}

; Function Attrs: inlinehint mustprogress nounwind uwtable
define linkonce_odr noundef ptr @_ZN6icu_7722FormattedStringBuilder10getCharPtrEv(ptr noundef nonnull align 8 dereferenceable(136) %0) #5 comdat align 2 {
  %2 = alloca ptr, align 8
  store ptr %0, ptr %2, align 8, !tbaa !3
  %3 = load ptr, ptr %2, align 8
  %4 = getelementptr inbounds nuw %"class.icu_77::FormattedStringBuilder", ptr %3, i32 0, i32 0
  %5 = load i8, ptr %4, align 8, !tbaa !8, !range !14, !noundef !15
  %6 = trunc i8 %5 to i1
  br i1 %6, label %7, label %11

7:                                                ; preds = %1
  %8 = getelementptr inbounds nuw %"class.icu_77::FormattedStringBuilder", ptr %3, i32 0, i32 1
  %9 = getelementptr inbounds nuw %struct.anon, ptr %8, i32 0, i32 0
  %10 = load ptr, ptr %9, align 8, !tbaa !16
  br label %14

11:                                               ; preds = %1
  %12 = getelementptr inbounds nuw %"class.icu_77::FormattedStringBuilder", ptr %3, i32 0, i32 1
  %13 = getelementptr inbounds [40 x i16], ptr %12, i64 0, i64 0
  br label %14

14:                                               ; preds = %11, %7
  %15 = phi ptr [ %10, %7 ], [ %13, %11 ]
  ret ptr %15
}

; Function Attrs: inlinehint mustprogress nounwind uwtable
define internal noundef signext i8 @_ZL9U_FAILURE10UErrorCode(i32 noundef %0) #5 {
  %2 = alloca i32, align 4
  store i32 %0, ptr %2, align 4, !tbaa !29
  %3 = load i32, ptr %2, align 4, !tbaa !29
  %4 = icmp sgt i32 %3, 0
  %5 = zext i1 %4 to i8
  ret i8 %5
}

; Function Attrs: mustprogress uwtable
define noundef i32 @_ZN6icu_7722FormattedStringBuilder16prepareForInsertEiiR10UErrorCode(ptr noundef nonnull align 8 dereferenceable(136) %0, i32 noundef %1, i32 noundef %2, ptr noundef nonnull align 4 dereferenceable(4) %3) #3 align 2 {
  %5 = alloca i32, align 4
  %6 = alloca ptr, align 8
  %7 = alloca i32, align 4
  %8 = alloca i32, align 4
  %9 = alloca ptr, align 8
  store ptr %0, ptr %6, align 8, !tbaa !3
  store i32 %1, ptr %7, align 4, !tbaa !17
  store i32 %2, ptr %8, align 4, !tbaa !17
  store ptr %3, ptr %9, align 8, !tbaa !22
  %10 = load ptr, ptr %6, align 8
  %11 = load ptr, ptr %9, align 8, !tbaa !22
  %12 = load i32, ptr %11, align 4, !tbaa !29
  %13 = call noundef signext i8 @_ZL9U_FAILURE10UErrorCode(i32 noundef %12)
  %14 = icmp ne i8 %13, 0
  br i1 %14, label %15, label %17

15:                                               ; preds = %4
  %16 = load i32, ptr %8, align 4, !tbaa !17
  store i32 %16, ptr %5, align 4
  br label %69

17:                                               ; preds = %4
  %18 = load i32, ptr %7, align 4, !tbaa !17
  %19 = icmp eq i32 %18, 0
  br i1 %19, label %20, label %37

20:                                               ; preds = %17
  %21 = getelementptr inbounds nuw %"class.icu_77::FormattedStringBuilder", ptr %10, i32 0, i32 3
  %22 = load i32, ptr %21, align 8, !tbaa !12
  %23 = load i32, ptr %8, align 4, !tbaa !17
  %24 = sub nsw i32 %22, %23
  %25 = icmp sge i32 %24, 0
  br i1 %25, label %26, label %37

26:                                               ; preds = %20
  %27 = load i32, ptr %8, align 4, !tbaa !17
  %28 = getelementptr inbounds nuw %"class.icu_77::FormattedStringBuilder", ptr %10, i32 0, i32 3
  %29 = load i32, ptr %28, align 8, !tbaa !12
  %30 = sub nsw i32 %29, %27
  store i32 %30, ptr %28, align 8, !tbaa !12
  %31 = load i32, ptr %8, align 4, !tbaa !17
  %32 = getelementptr inbounds nuw %"class.icu_77::FormattedStringBuilder", ptr %10, i32 0, i32 4
  %33 = load i32, ptr %32, align 4, !tbaa !13
  %34 = add nsw i32 %33, %31
  store i32 %34, ptr %32, align 4, !tbaa !13
  %35 = getelementptr inbounds nuw %"class.icu_77::FormattedStringBuilder", ptr %10, i32 0, i32 3
  %36 = load i32, ptr %35, align 8, !tbaa !12
  store i32 %36, ptr %5, align 4
  br label %69

37:                                               ; preds = %20, %17
  %38 = load i32, ptr %7, align 4, !tbaa !17
  %39 = getelementptr inbounds nuw %"class.icu_77::FormattedStringBuilder", ptr %10, i32 0, i32 4
  %40 = load i32, ptr %39, align 4, !tbaa !13
  %41 = icmp eq i32 %38, %40
  br i1 %41, label %42, label %64

42:                                               ; preds = %37
  %43 = load i32, ptr %8, align 4, !tbaa !17
  %44 = call noundef i32 @_ZNK6icu_7722FormattedStringBuilder11getCapacityEv(ptr noundef nonnull align 8 dereferenceable(136) %10)
  %45 = getelementptr inbounds nuw %"class.icu_77::FormattedStringBuilder", ptr %10, i32 0, i32 3
  %46 = load i32, ptr %45, align 8, !tbaa !12
  %47 = sub nsw i32 %44, %46
  %48 = getelementptr inbounds nuw %"class.icu_77::FormattedStringBuilder", ptr %10, i32 0, i32 4
  %49 = load i32, ptr %48, align 4, !tbaa !13
  %50 = sub nsw i32 %47, %49
  %51 = icmp sle i32 %43, %50
  br i1 %51, label %52, label %64

52:                                               ; preds = %42
  %53 = load i32, ptr %8, align 4, !tbaa !17
  %54 = getelementptr inbounds nuw %"class.icu_77::FormattedStringBuilder", ptr %10, i32 0, i32 4
  %55 = load i32, ptr %54, align 4, !tbaa !13
  %56 = add nsw i32 %55, %53
  store i32 %56, ptr %54, align 4, !tbaa !13
  %57 = getelementptr inbounds nuw %"class.icu_77::FormattedStringBuilder", ptr %10, i32 0, i32 3
  %58 = load i32, ptr %57, align 8, !tbaa !12
  %59 = getelementptr inbounds nuw %"class.icu_77::FormattedStringBuilder", ptr %10, i32 0, i32 4
  %60 = load i32, ptr %59, align 4, !tbaa !13
  %61 = add nsw i32 %58, %60
  %62 = load i32, ptr %8, align 4, !tbaa !17
  %63 = sub nsw i32 %61, %62
  store i32 %63, ptr %5, align 4
  br label %69

64:                                               ; preds = %42, %37
  %65 = load i32, ptr %7, align 4, !tbaa !17
  %66 = load i32, ptr %8, align 4, !tbaa !17
  %67 = load ptr, ptr %9, align 8, !tbaa !22
  %68 = call noundef i32 @_ZN6icu_7722FormattedStringBuilder22prepareForInsertHelperEiiR10UErrorCode(ptr noundef nonnull align 8 dereferenceable(136) %10, i32 noundef %65, i32 noundef %66, ptr noundef nonnull align 4 dereferenceable(4) %67)
  store i32 %68, ptr %5, align 4
  br label %69

69:                                               ; preds = %64, %52, %26, %15
  %70 = load i32, ptr %5, align 4
  ret i32 %70
}

; Function Attrs: mustprogress uwtable
define void @_ZN6icu_7722FormattedStringBuilder15writeTerminatorER10UErrorCode(ptr noundef nonnull align 8 dereferenceable(136) %0, ptr noundef nonnull align 4 dereferenceable(4) %1) #3 align 2 {
  %3 = alloca ptr, align 8
  %4 = alloca ptr, align 8
  %5 = alloca i32, align 4
  %6 = alloca i32, align 4
  store ptr %0, ptr %3, align 8, !tbaa !3
  store ptr %1, ptr %4, align 8, !tbaa !22
  %7 = load ptr, ptr %3, align 8
  call void @llvm.lifetime.start.p0(i64 4, ptr %5) #11
  %8 = getelementptr inbounds nuw %"class.icu_77::FormattedStringBuilder", ptr %7, i32 0, i32 4
  %9 = load i32, ptr %8, align 4, !tbaa !13
  %10 = load ptr, ptr %4, align 8, !tbaa !22
  %11 = call noundef i32 @_ZN6icu_7722FormattedStringBuilder16prepareForInsertEiiR10UErrorCode(ptr noundef nonnull align 8 dereferenceable(136) %7, i32 noundef %9, i32 noundef 1, ptr noundef nonnull align 4 dereferenceable(4) %10)
  store i32 %11, ptr %5, align 4, !tbaa !17
  %12 = load ptr, ptr %4, align 8, !tbaa !22
  %13 = load i32, ptr %12, align 4, !tbaa !29
  %14 = call noundef signext i8 @_ZL9U_FAILURE10UErrorCode(i32 noundef %13)
  %15 = icmp ne i8 %14, 0
  br i1 %15, label %16, label %17

16:                                               ; preds = %2
  store i32 1, ptr %6, align 4
  br label %29

17:                                               ; preds = %2
  %18 = call noundef ptr @_ZN6icu_7722FormattedStringBuilder10getCharPtrEv(ptr noundef nonnull align 8 dereferenceable(136) %7)
  %19 = load i32, ptr %5, align 4, !tbaa !17
  %20 = sext i32 %19 to i64
  %21 = getelementptr inbounds i16, ptr %18, i64 %20
  store i16 0, ptr %21, align 2, !tbaa !25
  %22 = call noundef ptr @_ZN6icu_7722FormattedStringBuilder11getFieldPtrEv(ptr noundef nonnull align 8 dereferenceable(136) %7)
  %23 = load i32, ptr %5, align 4, !tbaa !17
  %24 = sext i32 %23 to i64
  %25 = getelementptr inbounds %"struct.icu_77::FormattedStringBuilder::Field", ptr %22, i64 %24
  call void @llvm.memcpy.p0.p0.i64(ptr align 1 %25, ptr align 1 @_ZN6icu_77L15kUndefinedFieldE, i64 1, i1 false), !tbaa.struct !31
  %26 = getelementptr inbounds nuw %"class.icu_77::FormattedStringBuilder", ptr %7, i32 0, i32 4
  %27 = load i32, ptr %26, align 4, !tbaa !13
  %28 = add nsw i32 %27, -1
  store i32 %28, ptr %26, align 4, !tbaa !13
  store i32 0, ptr %6, align 4
  br label %29

29:                                               ; preds = %17, %16
  call void @llvm.lifetime.end.p0(i64 4, ptr %5) #11
  %30 = load i32, ptr %6, align 4
  switch i32 %30, label %32 [
    i32 0, label %31
    i32 1, label %31
  ]

31:                                               ; preds = %29, %29
  ret void

32:                                               ; preds = %29
  unreachable
}