; Function Attrs: mustprogress uwtable
define void @_ZN6icu_7722FormattedStringBuilder15writeTerminatorER10UErrorCode(ptr noundef nonnull align 8 dereferenceable(136) %0, ptr noundef nonnull align 4 captures(none) dereferenceable(4) %1) local_unnamed_addr #5 align 2 {
  %3 = getelementptr inbounds nuw i8, ptr %0, i64 132
  %4 = load i32, ptr %3, align 4, !tbaa !10
  %5 = load i32, ptr %1, align 4, !tbaa !16
  %6 = icmp slt i32 %5, 1
  br i1 %6, label %7, label %_ZN6icu_7722FormattedStringBuilder16prepareForInsertEiiR10UErrorCode.exit.thread7

7:                                                ; preds = %2
  %8 = icmp eq i32 %4, 0
  %9 = getelementptr inbounds nuw i8, ptr %0, i64 128
  %10 = load i32, ptr %9, align 8, !tbaa !9
  %11 = icmp sgt i32 %10, 0
  %or.cond = select i1 %8, i1 %11, i1 false
  br i1 %or.cond, label %12, label %._crit_edge

12:                                               ; preds = %7
  %13 = add nsw i32 %10, -1
  store i32 %13, ptr %9, align 8, !tbaa !9
  br label %_ZN6icu_7722FormattedStringBuilder16prepareForInsertEiiR10UErrorCode.exit.thread.sink.split

._crit_edge:                                      ; preds = %7
  %14 = load i8, ptr %0, align 8, !tbaa !3, !range !11, !noundef !12
  %15 = trunc nuw i8 %14 to i1
  %16 = getelementptr inbounds nuw i8, ptr %0, i64 16
  %17 = load i32, ptr %16, align 8
  %18 = select i1 %15, i32 %17, i32 40
  %19 = add i32 %10, %4
  %20 = sub i32 %18, %19
  %.not16.i = icmp slt i32 %20, 1
  br i1 %.not16.i, label %_ZN6icu_7722FormattedStringBuilder16prepareForInsertEiiR10UErrorCode.exit, label %21

21:                                               ; preds = %._crit_edge
  %22 = add nsw i32 %4, 1
  br label %_ZN6icu_7722FormattedStringBuilder16prepareForInsertEiiR10UErrorCode.exit.thread.sink.split

_ZN6icu_7722FormattedStringBuilder16prepareForInsertEiiR10UErrorCode.exit: ; preds = %._crit_edge
  %23 = tail call noundef i32 @_ZN6icu_7722FormattedStringBuilder22prepareForInsertHelperEiiR10UErrorCode(ptr noundef nonnull align 8 dereferenceable(136) %0, i32 noundef %4, i32 noundef 1, ptr noundef nonnull align 4 dereferenceable(4) %1)
  %.pre4 = load i32, ptr %1, align 4, !tbaa !16
  %24 = icmp slt i32 %.pre4, 1
  br i1 %24, label %_ZN6icu_7722FormattedStringBuilder16prepareForInsertEiiR10UErrorCode.exit.thread, label %_ZN6icu_7722FormattedStringBuilder16prepareForInsertEiiR10UErrorCode.exit.thread7

_ZN6icu_7722FormattedStringBuilder16prepareForInsertEiiR10UErrorCode.exit.thread.sink.split: ; preds = %12, %21
  %.sink = phi i32 [ %22, %21 ], [ 1, %12 ]
  %.0.i6.ph = phi i32 [ %19, %21 ], [ %13, %12 ]
  store i32 %.sink, ptr %3, align 4, !tbaa !10
  br label %_ZN6icu_7722FormattedStringBuilder16prepareForInsertEiiR10UErrorCode.exit.thread

_ZN6icu_7722FormattedStringBuilder16prepareForInsertEiiR10UErrorCode.exit.thread: ; preds = %_ZN6icu_7722FormattedStringBuilder16prepareForInsertEiiR10UErrorCode.exit.thread.sink.split, %_ZN6icu_7722FormattedStringBuilder16prepareForInsertEiiR10UErrorCode.exit
  %.0.i6 = phi i32 [ %23, %_ZN6icu_7722FormattedStringBuilder16prepareForInsertEiiR10UErrorCode.exit ], [ %.0.i6.ph, %_ZN6icu_7722FormattedStringBuilder16prepareForInsertEiiR10UErrorCode.exit.thread.sink.split ]
  %25 = load i8, ptr %0, align 8, !tbaa !3, !range !11, !noundef !12
  %26 = trunc nuw i8 %25 to i1
  %27 = getelementptr inbounds nuw i8, ptr %0, i64 8
  %28 = load ptr, ptr %27, align 8
  %29 = select i1 %26, ptr %28, ptr %27
  %30 = sext i32 %.0.i6 to i64
  %31 = getelementptr inbounds i16, ptr %29, i64 %30
  store i16 0, ptr %31, align 2, !tbaa !14
  %32 = getelementptr inbounds nuw i8, ptr %0, i64 88
  %33 = load ptr, ptr %32, align 8
  %34 = select i1 %26, ptr %33, ptr %32
  %35 = getelementptr inbounds %"struct.icu_77::FormattedStringBuilder::Field", ptr %34, i64 %30
  store i8 0, ptr %35, align 1, !tbaa !13
  %36 = load i32, ptr %3, align 4, !tbaa !10
  %37 = add nsw i32 %36, -1
  store i32 %37, ptr %3, align 4, !tbaa !10
  br label %_ZN6icu_7722FormattedStringBuilder16prepareForInsertEiiR10UErrorCode.exit.thread7

_ZN6icu_7722FormattedStringBuilder16prepareForInsertEiiR10UErrorCode.exit.thread7: ; preds = %2, %_ZN6icu_7722FormattedStringBuilder16prepareForInsertEiiR10UErrorCode.exit, %_ZN6icu_7722FormattedStringBuilder16prepareForInsertEiiR10UErrorCode.exit.thread
  ret void
}